; Function Attrs: mustprogress uwtable
define internal fastcc noundef zeroext i1 @_ZN4ofbxL13parseArrayRawINS_6MatrixEEEbRKNS_8PropertyEPT_i(ptr noundef nonnull align 8 dereferenceable(48) %0, ptr noundef %1) unnamed_addr #8 {
  %3 = alloca %struct.mz_stream_s, align 8
  %4 = getelementptr inbounds i8, ptr %0, i64 16
  %5 = getelementptr inbounds i8, ptr %0, i64 32
  %6 = load i8, ptr %5, align 8
  %7 = and i8 %6, 1
  %.not = icmp eq i8 %7, 0
  br i1 %.not, label %49, label %8

8:                                                ; preds = %2
  %9 = getelementptr inbounds i8, ptr %0, i64 12
  %10 = load i8, ptr %9, align 4
  %switch.tableidx = add i8 %10, -100
  %11 = icmp ult i8 %switch.tableidx, 9
  br i1 %11, label %switch.hole_check, label %_ZN4ofbxL17parseTextArrayRawINS_6MatrixEEEbRKNS_8PropertyEPT_i.exit

switch.hole_check:                                ; preds = %8
  %switch.maskindex = zext nneg i8 %switch.tableidx to i16
  %switch.shifted = lshr i16 293, %switch.maskindex
  %12 = and i16 %switch.shifted, 1
  %switch.lobit.not = icmp eq i16 %12, 0
  br i1 %switch.lobit.not, label %_ZN4ofbxL17parseTextArrayRawINS_6MatrixEEEbRKNS_8PropertyEPT_i.exit, label %switch.lookup

switch.lookup:                                    ; preds = %switch.hole_check
  %13 = zext nneg i8 %switch.tableidx to i64
  %switch.gep = getelementptr inbounds [9 x i32], ptr @switch.table._ZN4ofbxL13parseArrayRawINS_6MatrixEEEbRKNS_8PropertyEPT_i, i64 0, i64 %13
  %switch.load = load i32, ptr %switch.gep, align 4
  %14 = load ptr, ptr %4, align 8
  %15 = getelementptr inbounds i8, ptr %14, i64 12
  %16 = getelementptr inbounds i8, ptr %0, i64 24
  %17 = load ptr, ptr %16, align 8
  %18 = icmp ugt ptr %15, %17
  br i1 %18, label %_ZN4ofbxL17parseTextArrayRawINS_6MatrixEEEbRKNS_8PropertyEPT_i.exit, label %19

19:                                               ; preds = %switch.lookup
  %20 = load ptr, ptr %0, align 8
  %21 = getelementptr inbounds i8, ptr %20, i64 40
  %22 = load ptr, ptr %21, align 8
  %23 = tail call noundef i32 %22(ptr noundef nonnull align 8 dereferenceable(48) %0)
  %24 = load ptr, ptr %4, align 8
  %25 = getelementptr inbounds i8, ptr %24, i64 4
  %26 = load i32, ptr %25, align 4
  %27 = getelementptr inbounds i8, ptr %24, i64 8
  %28 = load i32, ptr %27, align 4
  switch i32 %26, label %_ZN4ofbxL17parseTextArrayRawINS_6MatrixEEEbRKNS_8PropertyEPT_i.exit [
    i32 0, label %29
    i32 1, label %37
  ]

29:                                               ; preds = %19
  %30 = icmp sgt i32 %28, 128
  br i1 %30, label %_ZN4ofbxL17parseTextArrayRawINS_6MatrixEEEbRKNS_8PropertyEPT_i.exit, label %31

31:                                               ; preds = %29
  %32 = zext i32 %28 to i64
  %33 = getelementptr inbounds i8, ptr %15, i64 %32
  %34 = load ptr, ptr %16, align 8
  %35 = icmp ugt ptr %33, %34
  br i1 %35, label %_ZN4ofbxL17parseTextArrayRawINS_6MatrixEEEbRKNS_8PropertyEPT_i.exit, label %36

36:                                               ; preds = %31
  tail call void @llvm.memcpy.p0.p0.i64(ptr align 8 %1, ptr nonnull align 1 %15, i64 %32, i1 false)
  br label %_ZN4ofbxL17parseTextArrayRawINS_6MatrixEEEbRKNS_8PropertyEPT_i.exit

37:                                               ; preds = %19
  %38 = mul i32 %23, %switch.load
  %39 = icmp sgt i32 %38, 128
  br i1 %39, label %_ZN4ofbxL17parseTextArrayRawINS_6MatrixEEEbRKNS_8PropertyEPT_i.exit, label %40

40:                                               ; preds = %37
  call void @llvm.lifetime.start.p0(i64 112, ptr nonnull %3)
  call void @llvm.memset.p0.i64(ptr noundef nonnull align 8 dereferenceable(112) %3, i8 0, i64 112, i1 false)
  %41 = call i32 @mz_inflateInit(ptr noundef nonnull %3)
  %42 = getelementptr inbounds i8, ptr %3, i64 8
  store i32 %28, ptr %42, align 8
  store ptr %15, ptr %3, align 8
  %43 = getelementptr inbounds i8, ptr %3, i64 32
  store i32 %38, ptr %43, align 8
  %44 = getelementptr inbounds i8, ptr %3, i64 24
  store ptr %1, ptr %44, align 8
  %45 = call i32 @mz_inflate(ptr noundef nonnull %3, i32 noundef 2)
  %.not.i = icmp eq i32 %45, 1
  br i1 %.not.i, label %46, label %_ZN4ofbxL10decompressEPKhmPhm.exit

46:                                               ; preds = %40
  %47 = call i32 @mz_inflateEnd(ptr noundef nonnull %3)
  %48 = icmp eq i32 %47, 0
  br label %_ZN4ofbxL10decompressEPKhmPhm.exit

_ZN4ofbxL10decompressEPKhmPhm.exit:               ; preds = %40, %46
  %.0.i = phi i1 [ %48, %46 ], [ false, %40 ]
  call void @llvm.lifetime.end.p0(i64 112, ptr nonnull %3)
  br label %_ZN4ofbxL17parseTextArrayRawINS_6MatrixEEEbRKNS_8PropertyEPT_i.exit

49:                                               ; preds = %2
  %50 = load ptr, ptr %4, align 8
  %51 = getelementptr inbounds i8, ptr %0, i64 24
  %52 = load ptr, ptr %51, align 8
  %53 = icmp ult ptr %50, %52
  br i1 %53, label %54, label %_ZN4ofbxL17parseTextArrayRawINS_6MatrixEEEbRKNS_8PropertyEPT_i.exit

54:                                               ; preds = %49
  %55 = ptrtoint ptr %52 to i64
  br label %.lr.ph29.i.i.i

.lr.ph29.i.i.i:                                   ; preds = %.critedge.i.i.i, %54
  %.028.i.i.i = phi i32 [ 0, %54 ], [ %65, %.critedge.i.i.i ]
  %.01827.i.i.i = phi ptr [ %50, %54 ], [ %spec.select.i.i.i, %.critedge.i.i.i ]
  %.02026.i.i.i = phi ptr [ %1, %54 ], [ %57, %.critedge.i.i.i ]
  %56 = tail call double @atof(ptr noundef %.01827.i.i.i) #30
  store double %56, ptr %.02026.i.i.i, align 8
  %57 = getelementptr inbounds i8, ptr %.02026.i.i.i, i64 8
  %58 = icmp ult ptr %.01827.i.i.i, %52
  br i1 %58, label %.lr.ph.preheader.i.i.i, label %.critedge.i.i.i

.lr.ph.preheader.i.i.i:                           ; preds = %.lr.ph29.i.i.i
  %.0182732.i.i.i = ptrtoint ptr %.01827.i.i.i to i64
  %scevgep.i.i.i = getelementptr i8, ptr %.01827.i.i.i, i64 %55
  %59 = sub i64 0, %.0182732.i.i.i
  %scevgep33.i.i.i = getelementptr i8, ptr %scevgep.i.i.i, i64 %59
  %60 = load i8, ptr %.01827.i.i.i, align 1
  %.not.i3.i.i = icmp eq i8 %60, 44
  br i1 %.not.i3.i.i, label %.critedge.i.i.i, label %.lr.ph.i.i

.lr.ph.i.i.i:                                     ; preds = %.lr.ph.i.i
  %61 = load i8, ptr %62, align 1
  %.not.i.i.i = icmp eq i8 %61, 44
  br i1 %.not.i.i.i, label %.critedge.i.loopexit.i.i, label %.lr.ph.i.i, !llvm.loop !15

.lr.ph.i.i:                                       ; preds = %.lr.ph.preheader.i.i.i, %.lr.ph.i.i.i
  %.121.i4.i.i = phi ptr [ %62, %.lr.ph.i.i.i ], [ %.01827.i.i.i, %.lr.ph.preheader.i.i.i ]
  %62 = getelementptr inbounds i8, ptr %.121.i4.i.i, i64 1
  %exitcond.not.i.i.i = icmp eq ptr %62, %scevgep33.i.i.i
  br i1 %exitcond.not.i.i.i, label %.critedge.i.loopexit.i.i, label %.lr.ph.i.i.i, !llvm.loop !15

.critedge.i.loopexit.i.i:                         ; preds = %.lr.ph.i.i, %.lr.ph.i.i.i
  %.lcssa.i = phi ptr [ %scevgep33.i.i.i, %.lr.ph.i.i ], [ %62, %.lr.ph.i.i.i ]
  %63 = icmp ult ptr %.lcssa.i, %52
  br label %.critedge.i.i.i

.critedge.i.i.i:                                  ; preds = %.critedge.i.loopexit.i.i, %.lr.ph.preheader.i.i.i, %.lr.ph29.i.i.i
  %.1.lcssa.i.i.i = phi ptr [ %.01827.i.i.i, %.lr.ph29.i.i.i ], [ %.01827.i.i.i, %.lr.ph.preheader.i.i.i ], [ %.lcssa.i, %.critedge.i.loopexit.i.i ]
  %.lcssa.i.i.i = phi i1 [ false, %.lr.ph29.i.i.i ], [ true, %.lr.ph.preheader.i.i.i ], [ %63, %.critedge.i.loopexit.i.i ]
  %spec.select.idx.i.i.i = zext i1 %.lcssa.i.i.i to i64
  %spec.select.i.i.i = getelementptr inbounds i8, ptr %.1.lcssa.i.i.i, i64 %spec.select.idx.i.i.i
  %64 = icmp eq ptr %spec.select.i.i.i, %52
  %65 = add nuw nsw i32 %.028.i.i.i, 1
  %exitcond34.not.i.i.i = icmp eq i32 %65, 16
  %or.cond.i = select i1 %64, i1 true, i1 %exitcond34.not.i.i.i
  br i1 %or.cond.i, label %_ZN4ofbxL17parseTextArrayRawINS_6MatrixEEEbRKNS_8PropertyEPT_i.exit, label %.lr.ph29.i.i.i, !llvm.loop !14

_ZN4ofbxL17parseTextArrayRawINS_6MatrixEEEbRKNS_8PropertyEPT_i.exit: ; preds = %.critedge.i.i.i, %switch.hole_check, %8, %49, %19, %37, %31, %29, %switch.lookup, %_ZN4ofbxL10decompressEPKhmPhm.exit, %36
  %.0 = phi i1 [ true, %36 ], [ %.0.i, %_ZN4ofbxL10decompressEPKhmPhm.exit ], [ false, %8 ], [ false, %switch.lookup ], [ false, %29 ], [ false, %31 ], [ false, %37 ], [ false, %19 ], [ false, %49 ], [ false, %switch.hole_check ], [ true, %.critedge.i.i.i ]
  ret i1 %.0
}